target datalayout = "e-m:e-p270:32:32-p271:32:32-p272:64:64-i64:64-i128:128-f80:128-n8:16:32:64-S128"
target triple = "x86_64-pc-linux-gnu"

%struct.AF_StyleMetricsRec_ = type { ptr, %struct.AF_ScalerRec_, i8, ptr }
%struct.AF_ScalerRec_ = type { ptr, i64, i64, i64, i64, i32, i32 }
%struct.AF_WidthRec_ = type { i64, i64, i64 }
%struct.AF_LatinMetricsRec_ = type { %struct.AF_StyleMetricsRec_, i32, [2 x %struct.AF_LatinAxisRec_] }
%struct.AF_LatinAxisRec_ = type { i64, i64, i32, [16 x %struct.AF_WidthRec_], i64, i64, i8, i32, [8 x %struct.AF_LatinBlueRec_], i64, i64 }
%struct.AF_LatinBlueRec_ = type { %struct.AF_WidthRec_, %struct.AF_WidthRec_, i64, i64, i32 }

; Function Attrs: nounwind uwtable
define internal void @af_latin_metrics_scale(ptr noundef %0, ptr noundef %1) #0 {
  %3 = alloca ptr, align 8
  %4 = alloca ptr, align 8
  %5 = alloca ptr, align 8
  store ptr %0, ptr %3, align 8, !tbaa !3
  store ptr %1, ptr %4, align 8, !tbaa !39
  call void @llvm.lifetime.start.p0(i64 8, ptr %5) #10
  %6 = load ptr, ptr %3, align 8, !tbaa !3
  store ptr %6, ptr %5, align 8, !tbaa !71
  %7 = load ptr, ptr %4, align 8, !tbaa !39
  %8 = getelementptr inbounds nuw %struct.AF_ScalerRec_, ptr %7, i32 0, i32 5
  %9 = load i32, ptr %8, align 8, !tbaa !75
  %10 = load ptr, ptr %5, align 8, !tbaa !71
  %11 = getelementptr inbounds nuw %struct.AF_LatinMetricsRec_, ptr %10, i32 0, i32 0
  %12 = getelementptr inbounds nuw %struct.AF_StyleMetricsRec_, ptr %11, i32 0, i32 1
  %13 = getelementptr inbounds nuw %struct.AF_ScalerRec_, ptr %12, i32 0, i32 5
  store i32 %9, ptr %13, align 8, !tbaa !76
  %14 = load ptr, ptr %4, align 8, !tbaa !39
  %15 = getelementptr inbounds nuw %struct.AF_ScalerRec_, ptr %14, i32 0, i32 0
  %16 = load ptr, ptr %15, align 8, !tbaa !77
  %17 = load ptr, ptr %5, align 8, !tbaa !71
  %18 = getelementptr inbounds nuw %struct.AF_LatinMetricsRec_, ptr %17, i32 0, i32 0
  %19 = getelementptr inbounds nuw %struct.AF_StyleMetricsRec_, ptr %18, i32 0, i32 1
  %20 = getelementptr inbounds nuw %struct.AF_ScalerRec_, ptr %19, i32 0, i32 0
  store ptr %16, ptr %20, align 8, !tbaa !78
  %21 = load ptr, ptr %4, align 8, !tbaa !39
  %22 = getelementptr inbounds nuw %struct.AF_ScalerRec_, ptr %21, i32 0, i32 6
  %23 = load i32, ptr %22, align 4, !tbaa !79
  %24 = load ptr, ptr %5, align 8, !tbaa !71
  %25 = getelementptr inbounds nuw %struct.AF_LatinMetricsRec_, ptr %24, i32 0, i32 0
  %26 = getelementptr inbounds nuw %struct.AF_StyleMetricsRec_, ptr %25, i32 0, i32 1
  %27 = getelementptr inbounds nuw %struct.AF_ScalerRec_, ptr %26, i32 0, i32 6
  store i32 %23, ptr %27, align 4, !tbaa !80
  %28 = load ptr, ptr %5, align 8, !tbaa !71
  %29 = load ptr, ptr %4, align 8, !tbaa !39
  call void @af_latin_metrics_scale_dim(ptr noundef %28, ptr noundef %29, i32 noundef 0)
  %30 = load ptr, ptr %5, align 8, !tbaa !71
  %31 = load ptr, ptr %4, align 8, !tbaa !39
  call void @af_latin_metrics_scale_dim(ptr noundef %30, ptr noundef %31, i32 noundef 1)
  call void @llvm.lifetime.end.p0(i64 8, ptr %5) #10
  ret void
}