; Function Attrs: nounwind uwtable
define internal void @af_latin_metrics_scale(ptr noundef captures(none) initializes((8, 16), (48, 56)) %0, ptr noundef readonly captures(none) %1) #0 {
  %3 = getelementptr inbounds nuw i8, ptr %1, i64 40
  %4 = load i32, ptr %3, align 8, !tbaa !193
  %5 = getelementptr inbounds nuw i8, ptr %0, i64 8
  %6 = getelementptr inbounds nuw i8, ptr %0, i64 48
  store i32 %4, ptr %6, align 8, !tbaa !194
  %7 = load ptr, ptr %1, align 8, !tbaa !142
  store ptr %7, ptr %5, align 8, !tbaa !195
  %8 = getelementptr inbounds nuw i8, ptr %1, i64 44
  %9 = load i32, ptr %8, align 4, !tbaa !196
  %10 = getelementptr inbounds nuw i8, ptr %0, i64 52
  store i32 %9, ptr %10, align 4, !tbaa !197
  tail call fastcc void @af_latin_metrics_scale_dim(ptr noundef %0, ptr noundef nonnull %1, i32 noundef 0)
  tail call fastcc void @af_latin_metrics_scale_dim(ptr noundef %0, ptr noundef nonnull %1, i32 noundef 1)
  ret void
}